target datalayout = "e-m:e-p270:32:32-p271:32:32-p272:64:64-i64:64-i128:128-f80:128-n8:16:32:64-S128"
target triple = "x86_64-pc-linux-gnu"

@.str.56 = private unnamed_addr constant [14 x i8] c"ui_last/theme\00", align 1
@.str.73 = private unnamed_addr constant [15 x i8] c"themes/usercss\00", align 1

; Function Attrs: nounwind uwtable
define internal void @reload_ui_last_theme() #0 {
  %1 = alloca ptr, align 8
  call void @llvm.lifetime.start.p0(i64 8, ptr %1) #10
  %2 = call ptr @dt_conf_get_string_const(ptr noundef @.str.56)
  store ptr %2, ptr %1, align 8, !tbaa !73
  %3 = load ptr, ptr %1, align 8, !tbaa !73
  call void @dt_gui_load_theme(ptr noundef %3)
  call void (...) @dt_bauhaus_load_theme()
  call void @llvm.lifetime.end.p0(i64 8, ptr %1) #10
  ret void
}

; Function Attrs: nounwind uwtable
define internal void @usercss_callback(ptr noundef %0, ptr noundef %1) #0 {
  %3 = alloca ptr, align 8
  %4 = alloca ptr, align 8
  store ptr %0, ptr %3, align 8, !tbaa !6
  store ptr %1, ptr %4, align 8, !tbaa !61
  %5 = load ptr, ptr %3, align 8, !tbaa !6
  %6 = call i64 @gtk_toggle_button_get_type() #11
  %7 = call ptr @g_type_check_instance_cast(ptr noundef %5, i64 noundef %6)
  %8 = call i32 @gtk_toggle_button_get_active(ptr noundef %7)
  call void @dt_conf_set_bool(ptr noundef @.str.73, i32 noundef %8)
  call void @reload_ui_last_theme()
  ret void
}