; Function Attrs: nounwind uwtable
define internal void @usercss_callback(ptr noundef %0, ptr readnone captures(none) %1) #0 {
  %3 = tail call i64 @gtk_toggle_button_get_type() #13
  %4 = tail call ptr @g_type_check_instance_cast(ptr noundef %0, i64 noundef %3) #12
  %5 = tail call i32 @gtk_toggle_button_get_active(ptr noundef %4) #12
  tail call void @dt_conf_set_bool(ptr noundef nonnull @.str.73, i32 noundef %5) #12
  %6 = tail call ptr @dt_conf_get_string_const(ptr noundef nonnull @.str.56) #12
  tail call void @dt_gui_load_theme(ptr noundef %6) #12
  tail call void (...) @dt_bauhaus_load_theme() #12
  ret void
}